Certificate:
    Data:
        Version: 3 (0x2)
        Serial Number:
            c2:5b:5a:3a:7d:c4:b6:e0
        Signature Algorithm: sha1WithRSAEncryption
        Issuer: C=US, ST=California, O=Vyper Logix Corp., CN=www.vyperlogix.com/emailAddress=support@vyperlogix.com
        Validity
            Not Before: Apr  8 15:49:59 2009 GMT
            Not After : Apr  8 15:49:59 2010 GMT
        Subject: C=US, ST=California, L=San Francisco, O=Vyper Logix Corp., OU=Sales and Marketing, CN=www.vyperlogix.com/emailAddress=support@vuperlogix.com
        Subject Public Key Info:
            Public Key Algorithm: rsaEncryption
            RSA Public Key: (1024 bit)
                Modulus (1024 bit):
                    00:e5:bc:20:96:79:59:06:6f:cb:e9:bd:ea:f0:91:
                    23:35:ca:35:77:f8:d4:35:70:7c:03:7f:6c:22:0b:
                    c1:e7:32:60:d8:71:7b:24:b5:60:63:67:a9:7b:42:
                    c4:87:81:93:5e:93:ea:10:a6:40:15:d3:59:20:10:
                    57:32:2e:64:5f:1e:3a:c8:e7:c8:2c:0d:8e:b1:ec:
                    50:34:0f:35:26:19:92:2a:7a:ab:60:ee:55:76:b7:
                    08:39:40:14:58:ea:28:40:83:23:dc:f9:16:90:2c:
                    99:f4:5b:4e:9a:9e:46:04:b2:50:ab:34:51:90:98:
                    31:76:06:7a:1f:d3:3d:78:69
                Exponent: 65537 (0x10001)
        X509v3 extensions:
            X509v3 Basic Constraints: 
                CA:FALSE
            Netscape Comment: 
                OpenSSL Generated Certificate
            X509v3 Subject Key Identifier: 
                57:2B:5C:E3:88:37:CC:84:67:98:EA:5C:0C:3C:CD:DA:91:A1:4E:83
            X509v3 Authority Key Identifier: 
                keyid:46:6F:24:B4:28:05:9B:9C:62:EF:50:59:8F:27:5F:8A:FC:A0:D9:D1

    Signature Algorithm: sha1WithRSAEncryption
        9e:65:da:5d:cf:ae:f9:eb:3e:91:9f:47:2b:a0:cd:9b:07:39:
        d0:7a:36:3b:ab:a4:ed:09:d3:ce:d1:09:17:7f:29:f7:3e:bf:
        2a:f2:39:08:03:2c:bb:d2:92:ac:81:26:27:e6:0c:77:89:94:
        82:e8:c1:14:70:68:cb:aa:38:c4:45:d7:dc:11:69:d3:e3:d5:
        92:1b:5d:8a:15:7a:b0:1a:dc:18:68:d8:89:41:5b:30:21:fe:
        dd:8e:5f:79:8a:53:1b:f3:f9:ff:a0:ab:0a:7b:3f:af:8c:26:
        55:4e:a8:42:2c:88:65:03:00:80:5e:30:0a:77:05:0e:9e:38:
        94:b5
-----BEGIN CERTIFICATE-----
MIIDNTCCAp6gAwIBAgIJAMJbWjp9xLbgMA0GCSqGSIb3DQEBBQUAMIGCMQswCQYD
VQQGEwJVUzETMBEGA1UECBMKQ2FsaWZvcm5pYTEaMBgGA1UEChMRVnlwZXIgTG9n
aXggQ29ycC4xGzAZBgNVBAMTEnd3dy52eXBlcmxvZ2l4LmNvbTElMCMGCSqGSIb3
DQEJARYWc3VwcG9ydEB2eXBlcmxvZ2l4LmNvbTAeFw0wOTA0MDgxNTQ5NTlaFw0x
MDA0MDgxNTQ5NTlaMIG4MQswCQYDVQQGEwJVUzETMBEGA1UECBMKQ2FsaWZvcm5p
YTEWMBQGA1UEBxMNU2FuIEZyYW5jaXNjbzEaMBgGA1UEChMRVnlwZXIgTG9naXgg
Q29ycC4xHDAaBgNVBAsTE1NhbGVzIGFuZCBNYXJrZXRpbmcxGzAZBgNVBAMTEnd3
dy52eXBlcmxvZ2l4LmNvbTElMCMGCSqGSIb3DQEJARYWc3VwcG9ydEB2dXBlcmxv
Z2l4LmNvbTCBnzANBgkqhkiG9w0BAQEFAAOBjQAwgYkCgYEA5bwglnlZBm/L6b3q
8JEjNco1d/jUNXB8A39sIgvB5zJg2HF7JLVgY2epe0LEh4GTXpPqEKZAFdNZIBBX
Mi5kXx46yOfILA2OsexQNA81JhmSKnqrYO5VdrcIOUAUWOooQIMj3PkWkCyZ9FtO
mp5GBLJQqzRRkJgxdgZ6H9M9eGkCAwEAAaN7MHkwCQYDVR0TBAIwADAsBglghkgB
hvhCAQ0EHxYdT3BlblNTTCBHZW5lcmF0ZWQgQ2VydGlmaWNhdGUwHQYDVR0OBBYE
FFcrXOOIN8yEZ5jqXAw8zdqRoU6DMB8GA1UdIwQYMBaAFEZvJLQoBZucYu9QWY8n
X4r8oNnRMA0GCSqGSIb3DQEBBQUAA4GBAJ5l2l3PrvnrPpGfRyugzZsHOdB6Njur
pO0J087RCRd/Kfc+vyryOQgDLLvSkqyBJifmDHeJlILowRRwaMuqOMRF19wRadPj
1ZIbXYoVerAa3Bho2IlBWzAh/t2OX3mKUxvz+f+gqwp7P6+MJlVOqEIsiGUDAIBe
MAp3BQ6eOJS1
-----END CERTIFICATE-----
