Certificate:
    Data:
        Version: 3 (0x2)
        Serial Number:
            c2:5b:5a:3a:7d:c4:b6:db
        Signature Algorithm: sha1WithRSAEncryption
        Issuer: C=US, ST=California, O=Vyper Logix Corp., CN=www.vyperlogix.com/emailAddress=support@vyperlogix.com
        Validity
            Not Before: Apr  6 02:56:44 2009 GMT
            Not After : Apr  5 02:56:44 2012 GMT
        Subject: C=US, ST=California, O=Vyper Logix Corp., CN=www.vyperlogix.com/emailAddress=support@vyperlogix.com
        Subject Public Key Info:
            Public Key Algorithm: rsaEncryption
            RSA Public Key: (1024 bit)
                Modulus (1024 bit):
                    00:e1:4b:08:c6:de:dd:ce:62:e1:1c:57:9c:a9:03:
                    8b:e9:77:e5:54:2d:8c:f9:ec:49:dd:88:1d:2c:a2:
                    2c:6f:ca:6c:71:a0:23:2f:71:2d:54:af:8d:e8:a5:
                    18:66:8f:cf:66:4b:bf:5e:ce:01:82:bf:6d:7a:89:
                    fe:73:b6:05:3d:9a:fe:4c:e6:ce:90:44:c4:67:f0:
                    fc:83:75:f9:13:e9:2c:ee:40:c4:ff:42:82:30:a5:
                    42:26:97:99:43:43:81:a5:04:15:96:73:f9:fb:56:
                    17:18:d1:dd:06:69:66:1e:84:7b:36:96:c0:60:25:
                    92:05:a3:90:a1:76:5c:be:3f
                Exponent: 65537 (0x10001)
        X509v3 extensions:
            X509v3 Subject Key Identifier: 
                46:6F:24:B4:28:05:9B:9C:62:EF:50:59:8F:27:5F:8A:FC:A0:D9:D1
            X509v3 Authority Key Identifier: 
                keyid:46:6F:24:B4:28:05:9B:9C:62:EF:50:59:8F:27:5F:8A:FC:A0:D9:D1
                DirName:/C=US/ST=California/O=Vyper Logix Corp./CN=www.vyperlogix.com/emailAddress=support@vyperlogix.com
                serial:C2:5B:5A:3A:7D:C4:B6:DB

            X509v3 Basic Constraints: 
                CA:TRUE
    Signature Algorithm: sha1WithRSAEncryption
        5d:f9:12:c6:8e:31:c6:54:fb:01:ce:d5:64:84:a7:51:dd:71:
        2d:7a:35:87:78:c6:44:07:31:35:f4:d2:c6:8a:47:c5:fc:ed:
        13:3b:2e:60:03:ba:3c:b1:f9:af:e7:eb:4b:0f:85:74:6b:dd:
        ea:ee:4c:bf:23:27:76:e9:79:6e:cc:30:d1:96:9c:ec:e5:ed:
        e8:dc:e9:03:52:3d:c6:8c:7a:92:e4:e3:06:33:76:9e:a8:5d:
        74:2c:0f:2d:03:18:f8:48:c1:48:4a:4f:62:13:31:91:b9:31:
        2e:12:e8:6a:a1:e7:54:c8:ce:60:75:68:0b:e7:0a:ba:2b:e7:
        8d:ec
-----BEGIN CERTIFICATE-----
MIIDbzCCAtigAwIBAgIJAMJbWjp9xLbbMA0GCSqGSIb3DQEBBQUAMIGCMQswCQYD
VQQGEwJVUzETMBEGA1UECBMKQ2FsaWZvcm5pYTEaMBgGA1UEChMRVnlwZXIgTG9n
aXggQ29ycC4xGzAZBgNVBAMTEnd3dy52eXBlcmxvZ2l4LmNvbTElMCMGCSqGSIb3
DQEJARYWc3VwcG9ydEB2eXBlcmxvZ2l4LmNvbTAeFw0wOTA0MDYwMjU2NDRaFw0x
MjA0MDUwMjU2NDRaMIGCMQswCQYDVQQGEwJVUzETMBEGA1UECBMKQ2FsaWZvcm5p
YTEaMBgGA1UEChMRVnlwZXIgTG9naXggQ29ycC4xGzAZBgNVBAMTEnd3dy52eXBl
cmxvZ2l4LmNvbTElMCMGCSqGSIb3DQEJARYWc3VwcG9ydEB2eXBlcmxvZ2l4LmNv
bTCBnzANBgkqhkiG9w0BAQEFAAOBjQAwgYkCgYEA4UsIxt7dzmLhHFecqQOL6Xfl
VC2M+exJ3YgdLKIsb8pscaAjL3EtVK+N6KUYZo/PZku/Xs4Bgr9teon+c7YFPZr+
TObOkETEZ/D8g3X5E+ks7kDE/0KCMKVCJpeZQ0OBpQQVlnP5+1YXGNHdBmlmHoR7
NpbAYCWSBaOQoXZcvj8CAwEAAaOB6jCB5zAdBgNVHQ4EFgQURm8ktCgFm5xi71BZ
jydfivyg2dEwgbcGA1UdIwSBrzCBrIAURm8ktCgFm5xi71BZjydfivyg2dGhgYik
gYUwgYIxCzAJBgNVBAYTAlVTMRMwEQYDVQQIEwpDYWxpZm9ybmlhMRowGAYDVQQK
ExFWeXBlciBMb2dpeCBDb3JwLjEbMBkGA1UEAxMSd3d3LnZ5cGVybG9naXguY29t
MSUwIwYJKoZIhvcNAQkBFhZzdXBwb3J0QHZ5cGVybG9naXguY29tggkAwltaOn3E
ttswDAYDVR0TBAUwAwEB/zANBgkqhkiG9w0BAQUFAAOBgQBd+RLGjjHGVPsBztVk
hKdR3XEtejWHeMZEBzE19NLGikfF/O0TOy5gA7o8sfmv5+tLD4V0a93q7ky/Iyd2
6XluzDDRlpzs5e3o3OkDUj3GjHqS5OMGM3aeqF10LA8tAxj4SMFISk9iEzGRuTEu
EuhqoedUyM5gdWgL5wq6K+eN7A==
-----END CERTIFICATE-----
