Certificate:
    Data:
        Version: 3 (0x2)
        Serial Number:
            c2:5b:5a:3a:7d:c4:b6:dd
        Signature Algorithm: sha1WithRSAEncryption
        Issuer: C=US, ST=California, O=Vyper Logix Corp., CN=www.vyperlogix.com/emailAddress=support@vyperlogix.com
        Validity
            Not Before: Apr  6 17:00:36 2009 GMT
            Not After : Apr  6 17:00:36 2010 GMT
        Subject: C=US, ST=California, L=San Francisco, O=Vyper Logix Corp., CN=stats.vyperlogix.com/emailAddress=support@vyperlogix.com
        Subject Public Key Info:
            Public Key Algorithm: rsaEncryption
            RSA Public Key: (1024 bit)
                Modulus (1024 bit):
                    00:d1:15:55:2d:3b:6a:06:b2:f1:dc:95:cd:ce:31:
                    21:b2:fd:cb:79:14:bf:5a:ec:75:01:8e:21:1b:0e:
                    57:76:68:4c:87:d1:99:dd:b3:c4:ce:b9:e3:46:2b:
                    d1:f4:a0:08:ae:c2:e2:2d:f1:0d:1d:5c:90:e1:9c:
                    ec:27:60:8a:a9:39:a5:22:c1:df:6f:d5:31:1e:2e:
                    1d:d6:13:1e:4f:e9:60:d0:93:ce:ac:51:87:df:fe:
                    2e:b3:58:ee:1d:70:14:fc:60:f9:76:60:eb:01:7e:
                    1e:b2:cc:e2:b1:42:6c:34:6a:46:c5:0e:f4:fd:7e:
                    31:96:c8:73:df:c5:36:03:0d
                Exponent: 65537 (0x10001)
        X509v3 extensions:
            X509v3 Basic Constraints: 
                CA:FALSE
            Netscape Comment: 
                OpenSSL Generated Certificate
            X509v3 Subject Key Identifier: 
                03:73:0C:A9:E1:33:1D:26:A3:F2:72:D4:57:8E:CE:C5:7B:C1:E8:17
            X509v3 Authority Key Identifier: 
                keyid:46:6F:24:B4:28:05:9B:9C:62:EF:50:59:8F:27:5F:8A:FC:A0:D9:D1

    Signature Algorithm: sha1WithRSAEncryption
        3f:4e:13:3c:67:78:f1:3a:18:7c:73:16:b7:4b:fc:6d:3f:99:
        8b:6d:03:d5:98:39:43:3e:f8:39:cf:f3:ea:ba:2c:9c:a7:24:
        83:be:a0:2e:45:be:6e:1f:d6:63:86:2b:e1:b5:5f:42:36:13:
        d9:1d:09:cf:65:2a:7b:ce:a1:4c:60:5e:9c:43:93:c4:62:c1:
        b8:17:6d:88:a9:ee:83:5f:a8:75:81:54:4e:dc:57:a8:3e:30:
        d7:95:c1:01:b1:90:2d:7f:5e:1d:29:92:8d:e2:a5:2e:69:b8:
        fd:c0:7a:8a:6d:61:8a:4e:bf:53:97:2a:32:23:9a:4a:cd:68:
        00:b7
-----BEGIN CERTIFICATE-----
MIIDGTCCAoKgAwIBAgIJAMJbWjp9xLbdMA0GCSqGSIb3DQEBBQUAMIGCMQswCQYD
VQQGEwJVUzETMBEGA1UECBMKQ2FsaWZvcm5pYTEaMBgGA1UEChMRVnlwZXIgTG9n
aXggQ29ycC4xGzAZBgNVBAMTEnd3dy52eXBlcmxvZ2l4LmNvbTElMCMGCSqGSIb3
DQEJARYWc3VwcG9ydEB2eXBlcmxvZ2l4LmNvbTAeFw0wOTA0MDYxNzAwMzZaFw0x
MDA0MDYxNzAwMzZaMIGcMQswCQYDVQQGEwJVUzETMBEGA1UECBMKQ2FsaWZvcm5p
YTEWMBQGA1UEBxMNU2FuIEZyYW5jaXNjbzEaMBgGA1UEChMRVnlwZXIgTG9naXgg
Q29ycC4xHTAbBgNVBAMTFHN0YXRzLnZ5cGVybG9naXguY29tMSUwIwYJKoZIhvcN
AQkBFhZzdXBwb3J0QHZ5cGVybG9naXguY29tMIGfMA0GCSqGSIb3DQEBAQUAA4GN
ADCBiQKBgQDRFVUtO2oGsvHclc3OMSGy/ct5FL9a7HUBjiEbDld2aEyH0Znds8TO
ueNGK9H0oAiuwuIt8Q0dXJDhnOwnYIqpOaUiwd9v1TEeLh3WEx5P6WDQk86sUYff
/i6zWO4dcBT8YPl2YOsBfh6yzOKxQmw0akbFDvT9fjGWyHPfxTYDDQIDAQABo3sw
eTAJBgNVHRMEAjAAMCwGCWCGSAGG+EIBDQQfFh1PcGVuU1NMIEdlbmVyYXRlZCBD
ZXJ0aWZpY2F0ZTAdBgNVHQ4EFgQUA3MMqeEzHSaj8nLUV47OxXvB6BcwHwYDVR0j
BBgwFoAURm8ktCgFm5xi71BZjydfivyg2dEwDQYJKoZIhvcNAQEFBQADgYEAP04T
PGd48ToYfHMWt0v8bT+Zi20D1Zg5Qz74Oc/z6rosnKckg76gLkW+bh/WY4Yr4bVf
QjYT2R0Jz2Uqe86hTGBenEOTxGLBuBdtiKnug1+odYFUTtxXqD4w15XBAbGQLX9e
HSmSjeKlLmm4/cB6im1hik6/U5cqMiOaSs1oALc=
-----END CERTIFICATE-----
