Certificate:
    Data:
        Version: 3 (0x2)
        Serial Number:
            c2:5b:5a:3a:7d:c4:b6:e1
        Signature Algorithm: sha1WithRSAEncryption
        Issuer: C=US, ST=California, O=Vyper Logix Corp., CN=www.vyperlogix.com/emailAddress=support@vyperlogix.com
        Validity
            Not Before: Apr  9 20:45:35 2009 GMT
            Not After : Apr  9 20:45:35 2010 GMT
        Subject: C=US, ST=California, L=San Francisco, O=Vyper Logix Corp., OU=Web Development, CN=127.0.0.1/emailAddress=support@vyperlogix.com
        Subject Public Key Info:
            Public Key Algorithm: rsaEncryption
            RSA Public Key: (1024 bit)
                Modulus (1024 bit):
                    00:e9:2a:eb:c5:0d:c3:79:60:62:49:66:77:0a:06:
                    1b:b9:ab:b3:55:f9:15:b0:17:a8:a2:f9:8c:d1:5a:
                    02:66:2c:89:57:43:36:45:31:86:6e:40:0d:e1:06:
                    4f:07:8a:aa:48:1c:44:91:d5:e8:97:50:fd:e6:ab:
                    e6:57:32:04:77:69:bf:81:40:1e:ac:34:ef:9e:7c:
                    eb:e3:a2:dd:53:14:4c:9d:d6:7e:7a:a8:af:72:dd:
                    81:00:7f:eb:c7:23:41:84:8d:80:4a:ee:21:9a:11:
                    a1:2a:65:01:c8:2c:84:26:89:81:fb:55:2d:43:cb:
                    ae:27:00:f7:4d:f3:b5:65:c1
                Exponent: 65537 (0x10001)
        X509v3 extensions:
            X509v3 Basic Constraints: 
                CA:FALSE
            Netscape Comment: 
                OpenSSL Generated Certificate
            X509v3 Subject Key Identifier: 
                86:57:A6:A6:C6:FE:00:35:F3:26:19:49:02:3C:5D:E3:FB:8B:86:C0
            X509v3 Authority Key Identifier: 
                keyid:46:6F:24:B4:28:05:9B:9C:62:EF:50:59:8F:27:5F:8A:FC:A0:D9:D1

    Signature Algorithm: sha1WithRSAEncryption
        ba:71:0d:2c:a2:2e:0d:ab:7b:18:66:16:8c:1f:15:e3:b2:84:
        cc:1b:a2:46:ea:41:6d:3a:34:7f:99:17:57:fc:cf:3c:0c:70:
        64:10:3b:24:4d:81:32:9c:b3:a6:07:a6:a2:bc:b3:7a:4e:db:
        4e:56:e9:49:08:ff:6f:e2:1a:70:19:04:23:38:2f:cf:53:f1:
        62:00:0c:2f:a3:c5:20:19:14:10:20:6e:b3:e8:20:37:6f:f2:
        ce:0a:8e:4f:cf:df:49:24:d0:cd:69:f3:64:e3:58:8a:d3:92:
        1a:b2:e7:49:0c:e1:88:2e:46:b0:3a:9e:fb:e2:88:80:5b:6e:
        73:f8
-----BEGIN CERTIFICATE-----
MIIDKDCCApGgAwIBAgIJAMJbWjp9xLbhMA0GCSqGSIb3DQEBBQUAMIGCMQswCQYD
VQQGEwJVUzETMBEGA1UECBMKQ2FsaWZvcm5pYTEaMBgGA1UEChMRVnlwZXIgTG9n
aXggQ29ycC4xGzAZBgNVBAMTEnd3dy52eXBlcmxvZ2l4LmNvbTElMCMGCSqGSIb3
DQEJARYWc3VwcG9ydEB2eXBlcmxvZ2l4LmNvbTAeFw0wOTA0MDkyMDQ1MzVaFw0x
MDA0MDkyMDQ1MzVaMIGrMQswCQYDVQQGEwJVUzETMBEGA1UECBMKQ2FsaWZvcm5p
YTEWMBQGA1UEBxMNU2FuIEZyYW5jaXNjbzEaMBgGA1UEChMRVnlwZXIgTG9naXgg
Q29ycC4xGDAWBgNVBAsTD1dlYiBEZXZlbG9wbWVudDESMBAGA1UEAxMJMTI3LjAu
MC4xMSUwIwYJKoZIhvcNAQkBFhZzdXBwb3J0QHZ5cGVybG9naXguY29tMIGfMA0G
CSqGSIb3DQEBAQUAA4GNADCBiQKBgQDpKuvFDcN5YGJJZncKBhu5q7NV+RWwF6ii
+YzRWgJmLIlXQzZFMYZuQA3hBk8HiqpIHESR1eiXUP3mq+ZXMgR3ab+BQB6sNO+e
fOvjot1TFEyd1n56qK9y3YEAf+vHI0GEjYBK7iGaEaEqZQHILIQmiYH7VS1Dy64n
APdN87VlwQIDAQABo3sweTAJBgNVHRMEAjAAMCwGCWCGSAGG+EIBDQQfFh1PcGVu
U1NMIEdlbmVyYXRlZCBDZXJ0aWZpY2F0ZTAdBgNVHQ4EFgQUhlempsb+ADXzJhlJ
Ajxd4/uLhsAwHwYDVR0jBBgwFoAURm8ktCgFm5xi71BZjydfivyg2dEwDQYJKoZI
hvcNAQEFBQADgYEAunENLKIuDat7GGYWjB8V47KEzBuiRupBbTo0f5kXV/zPPAxw
ZBA7JE2BMpyzpgemoryzek7bTlbpSQj/b+IacBkEIzgvz1PxYgAML6PFIBkUECBu
s+ggN2/yzgqOT8/fSSTQzWnzZONYitOSGrLnSQzhiC5GsDqe++KIgFtuc/g=
-----END CERTIFICATE-----
