Certificate:
    Data:
        Version: 3 (0x2)
        Serial Number:
            c2:5b:5a:3a:7d:c4:b6:df
        Signature Algorithm: sha1WithRSAEncryption
        Issuer: C=US, ST=California, O=Vyper Logix Corp., CN=www.vyperlogix.com/emailAddress=support@vyperlogix.com
        Validity
            Not Before: Apr  6 17:15:34 2009 GMT
            Not After : Apr  6 17:15:34 2010 GMT
        Subject: C=US, ST=California, L=San Francisco, O=Vyper Logix Corp., CN=stats.pypi.info/emailAddress=support@vyperlogix.com
        Subject Public Key Info:
            Public Key Algorithm: rsaEncryption
            RSA Public Key: (1024 bit)
                Modulus (1024 bit):
                    00:ed:b7:5d:de:dc:65:bf:5a:a7:f0:93:99:9c:15:
                    a5:d9:f9:85:39:c2:af:16:d4:56:ed:85:35:5d:5b:
                    80:51:60:d4:19:b8:6b:1c:19:48:64:92:e8:56:77:
                    a5:36:9e:b0:24:bf:6a:65:dc:77:95:9c:71:ee:a8:
                    ff:b6:2f:df:73:e0:bb:47:05:d1:c6:6c:a7:9f:0c:
                    2d:a9:39:a1:97:1d:7e:95:7b:9b:b3:01:43:77:95:
                    51:29:f1:f7:e9:25:e3:e2:b1:c7:04:ee:5e:c1:d8:
                    64:ad:3c:f1:29:14:fe:5b:18:42:9f:15:45:f1:d1:
                    f9:14:3c:4d:00:c6:00:aa:91
                Exponent: 65537 (0x10001)
        X509v3 extensions:
            X509v3 Basic Constraints: 
                CA:FALSE
            Netscape Comment: 
                OpenSSL Generated Certificate
            X509v3 Subject Key Identifier: 
                9A:65:3C:47:0B:5B:73:42:52:9E:12:3C:CB:1C:BC:A9:F0:3D:61:33
            X509v3 Authority Key Identifier: 
                keyid:46:6F:24:B4:28:05:9B:9C:62:EF:50:59:8F:27:5F:8A:FC:A0:D9:D1

    Signature Algorithm: sha1WithRSAEncryption
        68:59:f9:14:c0:56:f0:29:08:9a:c9:85:e9:63:63:ec:a1:11:
        3e:13:49:f1:de:ec:ae:88:62:bd:5a:7c:20:58:94:e2:bd:3d:
        23:bd:45:74:91:c2:10:29:48:de:c7:b8:17:e0:e0:8a:a3:a6:
        24:f3:11:2b:cd:6c:54:1a:51:d7:63:80:9c:7a:a6:06:9b:c2:
        ef:b7:4e:22:5a:ef:72:67:b7:6d:f2:87:9b:06:2c:27:3f:f3:
        ee:64:06:02:1b:c8:b4:d3:b8:ee:91:9c:32:ec:79:a8:a9:ed:
        2f:cf:6a:71:68:4f:66:94:ed:52:70:33:19:23:ce:ad:4a:fd:
        55:92
-----BEGIN CERTIFICATE-----
MIIDFDCCAn2gAwIBAgIJAMJbWjp9xLbfMA0GCSqGSIb3DQEBBQUAMIGCMQswCQYD
VQQGEwJVUzETMBEGA1UECBMKQ2FsaWZvcm5pYTEaMBgGA1UEChMRVnlwZXIgTG9n
aXggQ29ycC4xGzAZBgNVBAMTEnd3dy52eXBlcmxvZ2l4LmNvbTElMCMGCSqGSIb3
DQEJARYWc3VwcG9ydEB2eXBlcmxvZ2l4LmNvbTAeFw0wOTA0MDYxNzE1MzRaFw0x
MDA0MDYxNzE1MzRaMIGXMQswCQYDVQQGEwJVUzETMBEGA1UECBMKQ2FsaWZvcm5p
YTEWMBQGA1UEBxMNU2FuIEZyYW5jaXNjbzEaMBgGA1UEChMRVnlwZXIgTG9naXgg
Q29ycC4xGDAWBgNVBAMTD3N0YXRzLnB5cGkuaW5mbzElMCMGCSqGSIb3DQEJARYW
c3VwcG9ydEB2eXBlcmxvZ2l4LmNvbTCBnzANBgkqhkiG9w0BAQEFAAOBjQAwgYkC
gYEA7bdd3txlv1qn8JOZnBWl2fmFOcKvFtRW7YU1XVuAUWDUGbhrHBlIZJLoVnel
Np6wJL9qZdx3lZxx7qj/ti/fc+C7RwXRxmynnwwtqTmhlx1+lXubswFDd5VRKfH3
6SXj4rHHBO5ewdhkrTzxKRT+WxhCnxVF8dH5FDxNAMYAqpECAwEAAaN7MHkwCQYD
VR0TBAIwADAsBglghkgBhvhCAQ0EHxYdT3BlblNTTCBHZW5lcmF0ZWQgQ2VydGlm
aWNhdGUwHQYDVR0OBBYEFJplPEcLW3NCUp4SPMscvKnwPWEzMB8GA1UdIwQYMBaA
FEZvJLQoBZucYu9QWY8nX4r8oNnRMA0GCSqGSIb3DQEBBQUAA4GBAGhZ+RTAVvAp
CJrJheljY+yhET4TSfHe7K6IYr1afCBYlOK9PSO9RXSRwhApSN7HuBfg4IqjpiTz
ESvNbFQaUddjgJx6pgabwu+3TiJa73Jnt23yh5sGLCc/8+5kBgIbyLTTuO6RnDLs
eaip7S/PanFoT2aU7VJwMxkjzq1K/VWS
-----END CERTIFICATE-----
