Certificate:
    Data:
        Version: 3 (0x2)
        Serial Number:
            c2:5b:5a:3a:7d:c4:b6:de
        Signature Algorithm: sha1WithRSAEncryption
        Issuer: C=US, ST=California, O=Vyper Logix Corp., CN=www.vyperlogix.com/emailAddress=support@vyperlogix.com
        Validity
            Not Before: Apr  6 17:10:34 2009 GMT
            Not After : Apr  6 17:10:34 2010 GMT
        Subject: C=US, ST=California, L=San Francisco, O=Vyper Logix Corp., CN=stats.pyeggs.com/emailAddress=support@vyperlogix.com
        Subject Public Key Info:
            Public Key Algorithm: rsaEncryption
            RSA Public Key: (1024 bit)
                Modulus (1024 bit):
                    00:ca:6b:f4:f3:30:62:a5:10:0f:12:04:9d:ce:db:
                    92:48:74:b0:dc:46:ea:4b:90:7c:c2:7f:bb:31:53:
                    14:73:14:37:38:82:3c:eb:8d:75:02:14:a4:c4:c8:
                    95:d3:c5:86:29:af:42:b3:d2:26:4e:cb:ef:30:1f:
                    a8:c5:df:ca:04:21:f0:fd:16:3a:ec:55:20:09:2f:
                    fe:da:75:e3:1c:de:bd:12:f2:66:f7:eb:9e:80:31:
                    b1:84:a8:28:fe:13:46:47:09:1d:a3:12:36:6a:78:
                    a7:0d:ef:19:e2:de:6d:34:c1:dd:5c:b9:3b:75:a0:
                    6e:2f:7a:b4:1c:97:87:f3:5f
                Exponent: 65537 (0x10001)
        X509v3 extensions:
            X509v3 Basic Constraints: 
                CA:FALSE
            Netscape Comment: 
                OpenSSL Generated Certificate
            X509v3 Subject Key Identifier: 
                EA:21:02:51:3A:D4:7F:08:BF:05:28:DD:D4:4D:46:95:91:56:42:79
            X509v3 Authority Key Identifier: 
                keyid:46:6F:24:B4:28:05:9B:9C:62:EF:50:59:8F:27:5F:8A:FC:A0:D9:D1

    Signature Algorithm: sha1WithRSAEncryption
        10:23:54:02:dc:ac:ef:12:f2:65:28:de:3b:04:10:dc:93:a5:
        ac:31:48:79:6c:ef:0c:9b:8e:dc:a2:56:9a:9e:da:cf:5a:56:
        3b:d7:23:70:8f:ab:c4:24:9a:c4:4e:ab:66:26:67:76:fe:c3:
        87:43:e6:ac:45:de:ed:45:58:f6:c5:17:51:fa:56:cc:4c:32:
        bd:27:a9:b8:3e:31:9d:0e:b4:96:3c:a2:86:9e:b1:cf:32:61:
        90:be:57:8e:94:89:e6:46:ce:a2:ce:94:59:d6:45:c7:9a:4c:
        58:d1:26:24:5c:77:5f:53:f6:8c:5c:71:a5:57:b7:46:75:86:
        7d:b5
-----BEGIN CERTIFICATE-----
MIIDFTCCAn6gAwIBAgIJAMJbWjp9xLbeMA0GCSqGSIb3DQEBBQUAMIGCMQswCQYD
VQQGEwJVUzETMBEGA1UECBMKQ2FsaWZvcm5pYTEaMBgGA1UEChMRVnlwZXIgTG9n
aXggQ29ycC4xGzAZBgNVBAMTEnd3dy52eXBlcmxvZ2l4LmNvbTElMCMGCSqGSIb3
DQEJARYWc3VwcG9ydEB2eXBlcmxvZ2l4LmNvbTAeFw0wOTA0MDYxNzEwMzRaFw0x
MDA0MDYxNzEwMzRaMIGYMQswCQYDVQQGEwJVUzETMBEGA1UECBMKQ2FsaWZvcm5p
YTEWMBQGA1UEBxMNU2FuIEZyYW5jaXNjbzEaMBgGA1UEChMRVnlwZXIgTG9naXgg
Q29ycC4xGTAXBgNVBAMTEHN0YXRzLnB5ZWdncy5jb20xJTAjBgkqhkiG9w0BCQEW
FnN1cHBvcnRAdnlwZXJsb2dpeC5jb20wgZ8wDQYJKoZIhvcNAQEBBQADgY0AMIGJ
AoGBAMpr9PMwYqUQDxIEnc7bkkh0sNxG6kuQfMJ/uzFTFHMUNziCPOuNdQIUpMTI
ldPFhimvQrPSJk7L7zAfqMXfygQh8P0WOuxVIAkv/tp14xzevRLyZvfrnoAxsYSo
KP4TRkcJHaMSNmp4pw3vGeLebTTB3Vy5O3Wgbi96tByXh/NfAgMBAAGjezB5MAkG
A1UdEwQCMAAwLAYJYIZIAYb4QgENBB8WHU9wZW5TU0wgR2VuZXJhdGVkIENlcnRp
ZmljYXRlMB0GA1UdDgQWBBTqIQJROtR/CL8FKN3UTUaVkVZCeTAfBgNVHSMEGDAW
gBRGbyS0KAWbnGLvUFmPJ1+K/KDZ0TANBgkqhkiG9w0BAQUFAAOBgQAQI1QC3Kzv
EvJlKN47BBDck6WsMUh5bO8Mm47colaantrPWlY71yNwj6vEJJrETqtmJmd2/sOH
Q+asRd7tRVj2xRdR+lbMTDK9J6m4PjGdDrSWPKKGnrHPMmGQvleOlInmRs6izpRZ
1kXHmkxY0SYkXHdfU/aMXHGlV7dGdYZ9tQ==
-----END CERTIFICATE-----
