Certificate:
    Data:
        Version: 3 (0x2)
        Serial Number:
            c2:5b:5a:3a:7d:c4:b6:dc
        Signature Algorithm: sha1WithRSAEncryption
        Issuer: C=US, ST=California, O=Vyper Logix Corp., CN=www.vyperlogix.com/emailAddress=support@vyperlogix.com
        Validity
            Not Before: Apr  6 16:34:16 2009 GMT
            Not After : Apr  6 16:34:16 2010 GMT
        Subject: C=US, ST=California, L=San Francisco, O=Vyper Logix Corp., CN=www.pyeggs.com/emailAddress=support@vyperlogix.com
        Subject Public Key Info:
            Public Key Algorithm: rsaEncryption
            RSA Public Key: (1024 bit)
                Modulus (1024 bit):
                    00:dd:61:5e:cc:df:ae:fc:59:e7:e6:a4:8d:f5:e5:
                    80:df:79:f6:82:68:e1:76:1f:27:93:e9:6d:76:f3:
                    0f:4f:24:26:d6:04:61:57:72:cb:fc:cb:0b:e7:32:
                    e3:10:5f:7f:af:96:e6:b9:d4:27:47:92:5e:3f:b0:
                    74:50:7e:c9:58:60:99:40:d7:50:f3:ab:a1:1f:c1:
                    44:2d:d5:75:07:03:6e:fa:0f:07:5b:56:9f:e5:81:
                    43:6c:6f:08:71:c1:4e:b9:19:a0:ef:53:b2:9e:c3:
                    bf:eb:f2:4e:30:c3:94:59:4e:d7:5c:0d:4c:13:00:
                    a2:bb:1b:8b:f7:56:c6:17:95
                Exponent: 65537 (0x10001)
        X509v3 extensions:
            X509v3 Basic Constraints: 
                CA:FALSE
            Netscape Comment: 
                OpenSSL Generated Certificate
            X509v3 Subject Key Identifier: 
                FB:7F:9E:0C:F1:13:C9:5C:7C:32:0F:64:D7:CE:CD:74:62:3A:45:3E
            X509v3 Authority Key Identifier: 
                keyid:46:6F:24:B4:28:05:9B:9C:62:EF:50:59:8F:27:5F:8A:FC:A0:D9:D1

    Signature Algorithm: sha1WithRSAEncryption
        02:44:5a:7d:aa:f9:ec:c1:f9:59:53:24:53:19:97:4f:b7:6d:
        06:a8:94:cb:05:18:95:ba:83:6e:a3:d6:92:4e:66:7b:fa:52:
        b6:69:4c:d8:f9:7e:7d:9d:fe:4b:63:dc:aa:35:e9:c8:a7:c5:
        2a:cc:23:99:89:46:92:64:8f:74:4e:7b:79:15:4e:db:27:12:
        58:92:bf:e4:9a:3b:3d:df:4d:76:77:1b:96:d2:bd:1c:b1:1f:
        b5:1e:aa:36:30:b7:ec:39:bb:f7:06:54:5c:1a:56:9b:a3:d6:
        fc:63:4d:06:8a:a8:5a:6c:17:db:2c:73:d6:e3:f8:ef:09:79:
        a7:94
-----BEGIN CERTIFICATE-----
MIIDEzCCAnygAwIBAgIJAMJbWjp9xLbcMA0GCSqGSIb3DQEBBQUAMIGCMQswCQYD
VQQGEwJVUzETMBEGA1UECBMKQ2FsaWZvcm5pYTEaMBgGA1UEChMRVnlwZXIgTG9n
aXggQ29ycC4xGzAZBgNVBAMTEnd3dy52eXBlcmxvZ2l4LmNvbTElMCMGCSqGSIb3
DQEJARYWc3VwcG9ydEB2eXBlcmxvZ2l4LmNvbTAeFw0wOTA0MDYxNjM0MTZaFw0x
MDA0MDYxNjM0MTZaMIGWMQswCQYDVQQGEwJVUzETMBEGA1UECBMKQ2FsaWZvcm5p
YTEWMBQGA1UEBxMNU2FuIEZyYW5jaXNjbzEaMBgGA1UEChMRVnlwZXIgTG9naXgg
Q29ycC4xFzAVBgNVBAMTDnd3dy5weWVnZ3MuY29tMSUwIwYJKoZIhvcNAQkBFhZz
dXBwb3J0QHZ5cGVybG9naXguY29tMIGfMA0GCSqGSIb3DQEBAQUAA4GNADCBiQKB
gQDdYV7M3678WefmpI315YDfefaCaOF2HyeT6W128w9PJCbWBGFXcsv8ywvnMuMQ
X3+vlua51CdHkl4/sHRQfslYYJlA11Dzq6EfwUQt1XUHA276DwdbVp/lgUNsbwhx
wU65GaDvU7Kew7/r8k4ww5RZTtdcDUwTAKK7G4v3VsYXlQIDAQABo3sweTAJBgNV
HRMEAjAAMCwGCWCGSAGG+EIBDQQfFh1PcGVuU1NMIEdlbmVyYXRlZCBDZXJ0aWZp
Y2F0ZTAdBgNVHQ4EFgQU+3+eDPETyVx8Mg9k187NdGI6RT4wHwYDVR0jBBgwFoAU
Rm8ktCgFm5xi71BZjydfivyg2dEwDQYJKoZIhvcNAQEFBQADgYEAAkRafar57MH5
WVMkUxmXT7dtBqiUywUYlbqDbqPWkk5me/pStmlM2Pl+fZ3+S2PcqjXpyKfFKswj
mYlGkmSPdE57eRVO2ycSWJK/5Jo7Pd9NdncbltK9HLEftR6qNjC37Dm79wZUXBpW
m6PW/GNNBoqoWmwX2yxz1uP47wl5p5Q=
-----END CERTIFICATE-----
